; Function Attrs: mustprogress nounwind uwtable
define hidden void @_ZN12LIRGenerator11cmp_reg_memE13LIR_Condition7LIR_OprS1_i9BasicTypeP12CodeEmitInfo(ptr nocapture noundef nonnull readonly align 8 dereferenceable(232) %0, i32 noundef %1, i64 %2, i64 %3, i32 noundef %4, i8 noundef zeroext %5, ptr noundef %6) local_unnamed_addr #0 align 2 {
  %8 = getelementptr inbounds i8, ptr %0, i64 144
  %9 = load ptr, ptr %8, align 8
  %10 = tail call align 8 ptr @llvm.threadlocal.address.p0(ptr align 8 @_ZN6Thread12_thr_currentE)
  %11 = load ptr, ptr %10, align 8
  %12 = getelementptr inbounds i8, ptr %11, i64 1808
  %13 = load ptr, ptr %12, align 8
  %14 = getelementptr inbounds i8, ptr %13, i64 128
  %15 = load ptr, ptr %14, align 8
  %16 = load ptr, ptr %15, align 8
  %17 = getelementptr inbounds i8, ptr %16, i64 40
  %18 = load ptr, ptr %17, align 8
  %19 = getelementptr inbounds i8, ptr %16, i64 32
  %20 = load ptr, ptr %19, align 8
  %21 = ptrtoint ptr %18 to i64
  %22 = ptrtoint ptr %20 to i64
  %23 = sub i64 %21, %22
  %.not.i.i.i = icmp ult i64 %23, 48
  br i1 %.not.i.i.i, label %26, label %24

24:                                               ; preds = %7
  %25 = getelementptr inbounds i8, ptr %20, i64 48
  store ptr %25, ptr %19, align 8
  br label %_ZN22CompilationResourceObjnwEm.exit

26:                                               ; preds = %7
  %27 = tail call noundef ptr @_ZN5Arena4growEmN17AllocFailStrategy13AllocFailEnumE(ptr noundef nonnull align 8 dereferenceable(48) %16, i64 noundef 48, i32 noundef 0) #9
  br label %_ZN22CompilationResourceObjnwEm.exit

_ZN22CompilationResourceObjnwEm.exit:             ; preds = %24, %26
  %.0.i.i.i = phi ptr [ %20, %24 ], [ %27, %26 ]
  %28 = icmp eq ptr %.0.i.i.i, null
  br i1 %28, label %36, label %29

29:                                               ; preds = %_ZN22CompilationResourceObjnwEm.exit
  %30 = sext i32 %4 to i64
  store ptr getelementptr inbounds inrange(-16, 32) (i8, ptr @_ZTV11LIR_Address, i64 16), ptr %.0.i.i.i, align 8
  %31 = getelementptr inbounds i8, ptr %.0.i.i.i, i64 8
  store i64 %3, ptr %31, align 8
  %32 = getelementptr inbounds i8, ptr %.0.i.i.i, i64 16
  %.sroa.0.0.copyload.i.i = load i64, ptr @_ZN11LIR_OprFact10illegalOprE, align 8
  store i64 %.sroa.0.0.copyload.i.i, ptr %32, align 8
  %33 = getelementptr inbounds i8, ptr %.0.i.i.i, i64 24
  store i32 0, ptr %33, align 8
  %34 = getelementptr inbounds i8, ptr %.0.i.i.i, i64 32
  store i64 %30, ptr %34, align 8
  %35 = getelementptr inbounds i8, ptr %.0.i.i.i, i64 40
  store i8 %5, ptr %35, align 8
  br label %36

36:                                               ; preds = %29, %_ZN22CompilationResourceObjnwEm.exit
  tail call void @_ZN8LIR_List11cmp_reg_memE13LIR_Condition7LIR_OprP11LIR_AddressP12CodeEmitInfo(ptr noundef nonnull align 8 dereferenceable(32) %9, i32 noundef %1, i64 %2, ptr noundef %.0.i.i.i, ptr noundef %6) #9
  ret void
}